target datalayout = "e-m:e-p270:32:32-p271:32:32-p272:64:64-i64:64-i128:128-f80:128-n8:16:32:64-S128"
target triple = "x86_64-pc-linux-gnu"

@hf_scsi_inq_sccsflags = internal global i32 0, align 4
@ett_scsi_inq_sccsflags = internal global i32 0, align 4
@dissect_spc_inq_sccsflags.sccs_fields_spc2 = internal constant [2 x ptr] [ptr @hf_scsi_inq_sccs, ptr null], align 16
@dissect_spc_inq_sccsflags.sccs_fields_spc3 = internal constant [6 x ptr] [ptr @hf_scsi_inq_sccs, ptr @hf_scsi_inq_acc, ptr @hf_scsi_inq_tpgs, ptr @hf_scsi_inq_tpc, ptr @hf_scsi_inq_protect, ptr null], align 16

; Function Attrs: nounwind uwtable
define internal i32 @dissect_spc_inq_sccsflags(ptr noundef %0, i32 noundef %1, ptr noundef %2, i32 noundef %3) #0 {
  %5 = alloca ptr, align 8
  %6 = alloca i32, align 4
  %7 = alloca ptr, align 8
  %8 = alloca i32, align 4
  store ptr %0, ptr %5, align 8
  store i32 %1, ptr %6, align 4
  store ptr %2, ptr %7, align 8
  store i32 %3, ptr %8, align 4
  %9 = load i32, ptr %8, align 4
  switch i32 %9, label %25 [
    i32 3, label %10
    i32 4, label %11
    i32 5, label %18
    i32 6, label %18
  ]

10:                                               ; preds = %4
  br label %32

11:                                               ; preds = %4
  %12 = load ptr, ptr %7, align 8
  %13 = load ptr, ptr %5, align 8
  %14 = load i32, ptr %6, align 4
  %15 = load i32, ptr @hf_scsi_inq_sccsflags, align 4
  %16 = load i32, ptr @ett_scsi_inq_sccsflags, align 4
  %17 = call ptr @proto_tree_add_bitmask(ptr noundef %12, ptr noundef %13, i32 noundef %14, i32 noundef %15, i32 noundef %16, ptr noundef @dissect_spc_inq_sccsflags.sccs_fields_spc2, i32 noundef 0)
  br label %32

18:                                               ; preds = %4, %4
  %19 = load ptr, ptr %7, align 8
  %20 = load ptr, ptr %5, align 8
  %21 = load i32, ptr %6, align 4
  %22 = load i32, ptr @hf_scsi_inq_sccsflags, align 4
  %23 = load i32, ptr @ett_scsi_inq_sccsflags, align 4
  %24 = call ptr @proto_tree_add_bitmask(ptr noundef %19, ptr noundef %20, i32 noundef %21, i32 noundef %22, i32 noundef %23, ptr noundef @dissect_spc_inq_sccsflags.sccs_fields_spc3, i32 noundef 0)
  br label %32

25:                                               ; preds = %4
  %26 = load ptr, ptr %7, align 8
  %27 = load ptr, ptr %5, align 8
  %28 = load i32, ptr %6, align 4
  %29 = load i32, ptr @hf_scsi_inq_sccsflags, align 4
  %30 = load i32, ptr @ett_scsi_inq_sccsflags, align 4
  %31 = call ptr @proto_tree_add_bitmask(ptr noundef %26, ptr noundef %27, i32 noundef %28, i32 noundef %29, i32 noundef %30, ptr noundef @dissect_spc_inq_sccsflags.sccs_fields_spc3, i32 noundef 0)
  br label %32

32:                                               ; preds = %25, %18, %11, %10
  %33 = load i32, ptr %6, align 4
  %34 = add i32 %33, 1
  store i32 %34, ptr %6, align 4
  %35 = load i32, ptr %6, align 4
  ret i32 %35
}