; Function Attrs: nounwind uwtable
define internal fastcc noundef i32 @dissect_spc_inq_sccsflags(ptr noundef %0, i32 noundef %1, ptr noundef %2, i32 noundef range(i32 0, 256) %3) unnamed_addr #0 {
  %trunc = trunc nuw i32 %3 to i8
  switch i8 %trunc, label %5 [
    i8 3, label %9
    i8 4, label %.sink.split
  ]

5:                                                ; preds = %4
  br label %.sink.split

.sink.split:                                      ; preds = %4, %5
  %dissect_spc_inq_sccsflags.sccs_fields_spc3.sink = phi ptr [ @dissect_spc_inq_sccsflags.sccs_fields_spc3, %5 ], [ @dissect_spc_inq_sccsflags.sccs_fields_spc2, %4 ]
  %6 = load i32, ptr @hf_scsi_inq_sccsflags, align 4
  %7 = load i32, ptr @ett_scsi_inq_sccsflags, align 4
  %8 = tail call ptr @proto_tree_add_bitmask(ptr noundef %2, ptr noundef %0, i32 noundef %1, i32 noundef %6, i32 noundef %7, ptr noundef nonnull %dissect_spc_inq_sccsflags.sccs_fields_spc3.sink, i32 noundef 0) #10
  br label %9

9:                                                ; preds = %.sink.split, %4
  %10 = add i32 %1, 1
  ret i32 %10
}